; Function Attrs: nounwind uwtable
define internal i32 @cff_get_glyph_name(ptr noundef %0, i32 noundef %1, ptr noundef %2, i32 noundef %3) #4 {
  %5 = getelementptr inbounds i8, ptr %0, i64 1168
  %6 = load ptr, ptr %5, align 8
  %7 = getelementptr inbounds i8, ptr %6, i64 40
  %8 = load i8, ptr %7, align 8
  %9 = icmp eq i8 %8, 2
  br i1 %9, label %10, label %21

10:                                               ; preds = %4
  %11 = getelementptr inbounds i8, ptr %0, i64 176
  %12 = load ptr, ptr %11, align 8
  %13 = getelementptr inbounds i8, ptr %12, i64 8
  %14 = load ptr, ptr %13, align 8
  %15 = tail call ptr @FT_Get_Module(ptr noundef %14, ptr noundef nonnull @.str.1) #20
  %16 = tail call ptr @ft_module_get_service(ptr noundef %15, ptr noundef nonnull @.str.8, i8 noundef zeroext 0) #20
  %.not28 = icmp eq ptr %16, null
  br i1 %.not28, label %cff_index_get_sid_string.exit.thread, label %17

17:                                               ; preds = %10
  %18 = load ptr, ptr %16, align 8
  %.not29 = icmp eq ptr %18, null
  br i1 %.not29, label %cff_index_get_sid_string.exit.thread, label %19

19:                                               ; preds = %17
  %20 = tail call i32 %18(ptr noundef nonnull %0, i32 noundef %1, ptr noundef %2, i32 noundef %3) #20
  br label %cff_index_get_sid_string.exit.thread

21:                                               ; preds = %4
  %22 = getelementptr inbounds i8, ptr %6, i64 4960
  %23 = load ptr, ptr %22, align 8
  %.not = icmp eq ptr %23, null
  br i1 %.not, label %cff_index_get_sid_string.exit.thread, label %24

24:                                               ; preds = %21
  %25 = getelementptr inbounds i8, ptr %6, i64 1312
  %26 = load ptr, ptr %25, align 8
  %27 = zext i32 %1 to i64
  %28 = getelementptr inbounds i16, ptr %26, i64 %27
  %29 = load i16, ptr %28, align 2
  %30 = zext i16 %29 to i32
  %31 = icmp eq i16 %29, -1
  br i1 %31, label %cff_index_get_sid_string.exit.thread, label %32

32:                                               ; preds = %24
  %33 = icmp ugt i16 %29, 390
  br i1 %33, label %34, label %45

34:                                               ; preds = %32
  %35 = add nsw i32 %30, -391
  %36 = getelementptr inbounds i8, ptr %6, i64 1608
  %37 = load i32, ptr %36, align 8
  %38 = icmp ugt i32 %37, %35
  br i1 %38, label %39, label %cff_index_get_sid_string.exit.thread

39:                                               ; preds = %34
  %40 = getelementptr inbounds i8, ptr %6, i64 1616
  %41 = load ptr, ptr %40, align 8
  %42 = zext nneg i32 %35 to i64
  %43 = getelementptr inbounds ptr, ptr %41, i64 %42
  %44 = load ptr, ptr %43, align 8
  br label %cff_index_get_sid_string.exit

45:                                               ; preds = %32
  %46 = getelementptr inbounds i8, ptr %23, i64 40
  %47 = load ptr, ptr %46, align 8
  %48 = tail call ptr %47(i32 noundef %30) #20
  br label %cff_index_get_sid_string.exit

cff_index_get_sid_string.exit:                    ; preds = %39, %45
  %.0.i = phi ptr [ %48, %45 ], [ %44, %39 ]
  %.not27 = icmp eq ptr %.0.i, null
  br i1 %.not27, label %cff_index_get_sid_string.exit.thread, label %49

49:                                               ; preds = %cff_index_get_sid_string.exit
  %50 = zext i32 %3 to i64
  %51 = tail call i32 @ft_mem_strcpyn(ptr noundef %2, ptr noundef nonnull %.0.i, i64 noundef %50) #20
  br label %cff_index_get_sid_string.exit.thread

cff_index_get_sid_string.exit.thread:             ; preds = %34, %24, %17, %10, %21, %49, %cff_index_get_sid_string.exit, %19
  %.0 = phi i32 [ %20, %19 ], [ 11, %17 ], [ 11, %10 ], [ 11, %21 ], [ 0, %49 ], [ 0, %cff_index_get_sid_string.exit ], [ 0, %24 ], [ 0, %34 ]
  ret i32 %.0
}